target datalayout = "e-m:e-p270:32:32-p271:32:32-p272:64:64-i64:64-i128:128-f80:128-n8:16:32:64-S128"
target triple = "x86_64-pc-linux-gnu"

%struct.hidapi_backend = type { ptr, ptr, ptr, ptr, ptr, ptr, ptr, ptr, ptr, ptr, ptr, ptr, ptr, ptr, ptr }
%struct.SDL_hid_device_info = type { ptr, i16, i16, ptr, i16, ptr, ptr, i16, i16, i32, i32, i32, i32, i32, ptr }
%struct.SDL_hid_device = type { ptr, ptr, %struct.SDL_hid_device_info }

@.str.30 = private unnamed_addr constant [15 x i8] c"Invalid device\00", align 1

; Function Attrs: nounwind uwtable
define hidden ptr @SDL_hid_get_device_info_REAL(ptr noundef %0) #0 {
  %2 = alloca ptr, align 8
  %3 = alloca ptr, align 8
  %4 = alloca ptr, align 8
  %5 = alloca i32, align 4
  store ptr %0, ptr %3, align 8
  call void @llvm.lifetime.start.p0(i64 8, ptr %4) #10
  %6 = load ptr, ptr %3, align 8
  %7 = call zeroext i1 @SDL_ObjectValid(ptr noundef %6, i32 noundef 8)
  br i1 %7, label %10, label %8

8:                                                ; preds = %1
  %9 = call zeroext i1 (ptr, ...) @SDL_SetError_REAL(ptr noundef @.str.30)
  store ptr null, ptr %2, align 8
  store i32 1, ptr %5, align 4
  br label %29

10:                                               ; preds = %1
  %11 = load ptr, ptr %3, align 8
  %12 = getelementptr inbounds nuw %struct.SDL_hid_device, ptr %11, i32 0, i32 1
  %13 = load ptr, ptr %12, align 8
  %14 = getelementptr inbounds nuw %struct.hidapi_backend, ptr %13, i32 0, i32 12
  %15 = load ptr, ptr %14, align 8
  %16 = load ptr, ptr %3, align 8
  %17 = getelementptr inbounds nuw %struct.SDL_hid_device, ptr %16, i32 0, i32 0
  %18 = load ptr, ptr %17, align 8
  %19 = call ptr %15(ptr noundef %18)
  store ptr %19, ptr %4, align 8
  %20 = load ptr, ptr %4, align 8
  %21 = icmp ne ptr %20, null
  br i1 %21, label %22, label %28

22:                                               ; preds = %10
  %23 = load ptr, ptr %4, align 8
  %24 = load ptr, ptr %3, align 8
  %25 = getelementptr inbounds nuw %struct.SDL_hid_device, ptr %24, i32 0, i32 2
  call void @CopyHIDDeviceInfo(ptr noundef %23, ptr noundef %25)
  %26 = load ptr, ptr %3, align 8
  %27 = getelementptr inbounds nuw %struct.SDL_hid_device, ptr %26, i32 0, i32 2
  store ptr %27, ptr %2, align 8
  store i32 1, ptr %5, align 4
  br label %29

28:                                               ; preds = %10
  store ptr null, ptr %2, align 8
  store i32 1, ptr %5, align 4
  br label %29

29:                                               ; preds = %28, %22, %8
  call void @llvm.lifetime.end.p0(i64 8, ptr %4) #10
  %30 = load ptr, ptr %2, align 8
  ret ptr %30
}