; Function Attrs: nounwind uwtable
define hidden noundef ptr @SDL_hid_get_device_info_REAL(ptr noundef %0) local_unnamed_addr #1 {
  %2 = tail call zeroext i1 @SDL_ObjectValid(ptr noundef %0, i32 noundef 8) #22
  br i1 %2, label %5, label %3

3:                                                ; preds = %1
  %4 = tail call zeroext i1 (ptr, ...) @SDL_SetError_REAL(ptr noundef nonnull @.str.30) #22
  br label %14

5:                                                ; preds = %1
  %6 = getelementptr inbounds nuw i8, ptr %0, i64 8
  %7 = load ptr, ptr %6, align 8
  %8 = getelementptr inbounds nuw i8, ptr %7, i64 96
  %9 = load ptr, ptr %8, align 8
  %10 = load ptr, ptr %0, align 8
  %11 = tail call ptr %9(ptr noundef %10) #22
  %.not = icmp eq ptr %11, null
  br i1 %.not, label %14, label %12

12:                                               ; preds = %5
  %13 = getelementptr inbounds nuw i8, ptr %0, i64 16
  tail call fastcc void @CopyHIDDeviceInfo(ptr noundef %11, ptr noundef nonnull %13)
  br label %14

14:                                               ; preds = %5, %12, %3
  %.0 = phi ptr [ %13, %12 ], [ null, %3 ], [ null, %5 ]
  ret ptr %.0
}